; ModuleID = 'source-C-CXX/61/1478.c'
source_filename = "source-C-CXX/61/1478.c"
target datalayout = "e-m:e-p270:32:32-p271:32:32-p272:64:64-i64:64-f80:128-n8:16:32:64-S128"
target triple = "x86_64-pc-linux-gnu"

; Function Attrs: nounwind sspstrong uwtable
define dso_local i32 @main() local_unnamed_addr #0 {
  %1 = alloca [1000 x i8], align 16
  %2 = getelementptr inbounds [1000 x i8], [1000 x i8]* %1, i64 0, i64 0
  call void @llvm.lifetime.start.p0i8(i64 1000, i8* nonnull %2) #5
  %3 = call i32 (i8*, ...) bitcast (i32 (...)* @gets to i32 (i8*, ...)*)(i8* nonnull %2) #5
  br label %4

4:                                                ; preds = %28, %0
  %5 = phi i32 [ 0, %0 ], [ %30, %28 ]
  %6 = sext i32 %5 to i64
  %7 = getelementptr inbounds [1000 x i8], [1000 x i8]* %1, i64 0, i64 %6
  %8 = load i8, i8* %7, align 1, !tbaa !5
  switch i8 %8, label %28 [
    i8 0, label %9
    i8 32, label %12
  ]

9:                                                ; preds = %4
  %10 = load i8, i8* %2, align 16, !tbaa !5
  %11 = icmp eq i8 %10, 0
  br i1 %11, label %40, label %31

12:                                               ; preds = %4
  %13 = add nsw i32 %5, 1
  %14 = sext i32 %13 to i64
  %15 = getelementptr inbounds [1000 x i8], [1000 x i8]* %1, i64 0, i64 %14
  %16 = load i8, i8* %15, align 1, !tbaa !5
  %17 = icmp eq i8 %16, 32
  br i1 %17, label %18, label %28

18:                                               ; preds = %12, %18
  %19 = phi i64 [ %21, %18 ], [ %6, %12 ]
  %20 = phi i8* [ %22, %18 ], [ %7, %12 ]
  %21 = add nsw i64 %19, 1
  %22 = getelementptr inbounds [1000 x i8], [1000 x i8]* %1, i64 0, i64 %21
  %23 = load i8, i8* %22, align 1, !tbaa !5
  store i8 %23, i8* %20, align 1, !tbaa !5
  %24 = load i8, i8* %22, align 1, !tbaa !5
  %25 = icmp eq i8 %24, 0
  br i1 %25, label %26, label %18, !llvm.loop !8

26:                                               ; preds = %18
  %27 = add nsw i32 %5, -1
  br label %28

28:                                               ; preds = %4, %26, %12
  %29 = phi i32 [ %27, %26 ], [ %5, %12 ], [ %5, %4 ]
  %30 = add nsw i32 %29, 1
  br label %4, !llvm.loop !10

31:                                               ; preds = %9, %31
  %32 = phi i64 [ %36, %31 ], [ 0, %9 ]
  %33 = phi i8 [ %38, %31 ], [ %10, %9 ]
  %34 = sext i8 %33 to i32
  %35 = call i32 @putchar(i32 %34)
  %36 = add nuw i64 %32, 1
  %37 = getelementptr inbounds [1000 x i8], [1000 x i8]* %1, i64 0, i64 %36
  %38 = load i8, i8* %37, align 1, !tbaa !5
  %39 = icmp eq i8 %38, 0
  br i1 %39, label %40, label %31, !llvm.loop !11

40:                                               ; preds = %31, %9
  call void @llvm.lifetime.end.p0i8(i64 1000, i8* nonnull %2) #5
  ret i32 0
}

; Function Attrs: argmemonly mustprogress nofree nosync nounwind willreturn
declare void @llvm.lifetime.start.p0i8(i64 immarg, i8* nocapture) #1

declare i32 @gets(...) local_unnamed_addr #2

; Function Attrs: nofree norecurse nosync nounwind sspstrong uwtable
define dso_local void @dao(i8* nocapture %0, i32 %1) local_unnamed_addr #3 {
  %3 = sext i32 %1 to i64
  %4 = getelementptr inbounds i8, i8* %0, i64 %3
  %5 = load i8, i8* %4, align 1, !tbaa !5
  %6 = icmp eq i8 %5, 0
  br i1 %6, label %15, label %7

7:                                                ; preds = %2, %7
  %8 = phi i64 [ %10, %7 ], [ %3, %2 ]
  %9 = phi i8* [ %11, %7 ], [ %4, %2 ]
  %10 = add nsw i64 %8, 1
  %11 = getelementptr inbounds i8, i8* %0, i64 %10
  %12 = load i8, i8* %11, align 1, !tbaa !5
  store i8 %12, i8* %9, align 1, !tbaa !5
  %13 = load i8, i8* %11, align 1, !tbaa !5
  %14 = icmp eq i8 %13, 0
  br i1 %14, label %15, label %7, !llvm.loop !8

15:                                               ; preds = %7, %2
  ret void
}

; Function Attrs: argmemonly mustprogress nofree nosync nounwind willreturn
declare void @llvm.lifetime.end.p0i8(i64 immarg, i8* nocapture) #1

; Function Attrs: nofree nounwind
declare noundef i32 @putchar(i32 noundef) local_unnamed_addr #4


!llvm.module.flags = !{!0, !1, !2, !3}
!llvm.ident = !{!4}

!0 = !{i32 1, !"wchar_size", i32 4}
!1 = !{i32 7, !"PIC Level", i32 2}
!2 = !{i32 7, !"PIE Level", i32 2}
!3 = !{i32 7, !"uwtable", i32 1}
!4 = !{!"clang version 13.0.0"}
!5 = !{!6, !6, i64 0}
!6 = !{!"omnipotent char", !7, i64 0}
!7 = !{!"Simple C/C++ TBAA"}
!8 = distinct !{!8, !9}
!9 = !{!"llvm.loop.mustprogress"}
!10 = distinct !{!10, !9}
!11 = distinct !{!11, !9}
